target datalayout = "e-m:e-p270:32:32-p271:32:32-p272:64:64-i64:64-i128:128-f80:128-n8:16:32:64-S128"
target triple = "x86_64-pc-linux-gnu"

; Function Attrs: nounwind uwtable
define internal void @dilation16(ptr noundef %0, ptr noundef %1, i32 noundef %2, i32 noundef %3, ptr noundef %4, i32 noundef %5, i32 noundef %6) #1 {
  %8 = alloca ptr, align 8
  %9 = alloca ptr, align 8
  %10 = alloca i32, align 4
  %11 = alloca i32, align 4
  %12 = alloca ptr, align 8
  %13 = alloca i32, align 4
  %14 = alloca i32, align 4
  %15 = alloca ptr, align 8
  %16 = alloca i32, align 4
  %17 = alloca i32, align 4
  %18 = alloca i32, align 4
  %19 = alloca i32, align 4
  store ptr %0, ptr %8, align 8, !tbaa !64
  store ptr %1, ptr %9, align 8, !tbaa !64
  store i32 %2, ptr %10, align 4, !tbaa !42
  store i32 %3, ptr %11, align 4, !tbaa !42
  store ptr %4, ptr %12, align 8, !tbaa !69
  store i32 %5, ptr %13, align 4, !tbaa !42
  store i32 %6, ptr %14, align 4, !tbaa !42
  call void @llvm.lifetime.start.p0(i64 8, ptr %15) #5
  %20 = load ptr, ptr %8, align 8, !tbaa !64
  store ptr %20, ptr %15, align 8, !tbaa !71
  call void @llvm.lifetime.start.p0(i64 4, ptr %16) #5
  call void @llvm.lifetime.start.p0(i64 4, ptr %17) #5
  store i32 0, ptr %16, align 4, !tbaa !42
  br label %21

21:                                               ; preds = %105, %7
  %22 = load i32, ptr %16, align 4, !tbaa !42
  %23 = load i32, ptr %10, align 4, !tbaa !42
  %24 = icmp slt i32 %22, %23
  br i1 %24, label %25, label %108

25:                                               ; preds = %21
  call void @llvm.lifetime.start.p0(i64 4, ptr %18) #5
  %26 = load ptr, ptr %9, align 8, !tbaa !64
  %27 = load i32, ptr %16, align 4, !tbaa !42
  %28 = mul nsw i32 %27, 2
  %29 = sext i32 %28 to i64
  %30 = getelementptr inbounds i8, ptr %26, i64 %29
  %31 = load i16, ptr %30, align 2, !tbaa !73
  %32 = zext i16 %31 to i32
  store i32 %32, ptr %18, align 4, !tbaa !42
  call void @llvm.lifetime.start.p0(i64 4, ptr %19) #5
  %33 = load i32, ptr %18, align 4, !tbaa !42
  %34 = load i32, ptr %11, align 4, !tbaa !42
  %35 = add nsw i32 %33, %34
  %36 = load i32, ptr %14, align 4, !tbaa !42
  %37 = icmp sgt i32 %35, %36
  br i1 %37, label %38, label %40

38:                                               ; preds = %25
  %39 = load i32, ptr %14, align 4, !tbaa !42
  br label %44

40:                                               ; preds = %25
  %41 = load i32, ptr %18, align 4, !tbaa !42
  %42 = load i32, ptr %11, align 4, !tbaa !42
  %43 = add nsw i32 %41, %42
  br label %44

44:                                               ; preds = %40, %38
  %45 = phi i32 [ %39, %38 ], [ %43, %40 ]
  store i32 %45, ptr %19, align 4, !tbaa !42
  store i32 0, ptr %17, align 4, !tbaa !42
  br label %46

46:                                               ; preds = %95, %44
  %47 = load i32, ptr %17, align 4, !tbaa !42
  %48 = icmp slt i32 %47, 8
  br i1 %48, label %49, label %98

49:                                               ; preds = %46
  %50 = load i32, ptr %13, align 4, !tbaa !42
  %51 = load i32, ptr %17, align 4, !tbaa !42
  %52 = shl i32 1, %51
  %53 = and i32 %50, %52
  %54 = icmp ne i32 %53, 0
  br i1 %54, label %55, label %85

55:                                               ; preds = %49
  %56 = load i32, ptr %18, align 4, !tbaa !42
  %57 = load ptr, ptr %12, align 8, !tbaa !69
  %58 = load i32, ptr %17, align 4, !tbaa !42
  %59 = sext i32 %58 to i64
  %60 = getelementptr inbounds ptr, ptr %57, i64 %59
  %61 = load ptr, ptr %60, align 8, !tbaa !64
  %62 = load i32, ptr %16, align 4, !tbaa !42
  %63 = mul nsw i32 %62, 2
  %64 = sext i32 %63 to i64
  %65 = getelementptr inbounds i8, ptr %61, i64 %64
  %66 = load i16, ptr %65, align 2, !tbaa !73
  %67 = zext i16 %66 to i32
  %68 = icmp sgt i32 %56, %67
  br i1 %68, label %69, label %71

69:                                               ; preds = %55
  %70 = load i32, ptr %18, align 4, !tbaa !42
  br label %83

71:                                               ; preds = %55
  %72 = load ptr, ptr %12, align 8, !tbaa !69
  %73 = load i32, ptr %17, align 4, !tbaa !42
  %74 = sext i32 %73 to i64
  %75 = getelementptr inbounds ptr, ptr %72, i64 %74
  %76 = load ptr, ptr %75, align 8, !tbaa !64
  %77 = load i32, ptr %16, align 4, !tbaa !42
  %78 = mul nsw i32 %77, 2
  %79 = sext i32 %78 to i64
  %80 = getelementptr inbounds i8, ptr %76, i64 %79
  %81 = load i16, ptr %80, align 2, !tbaa !73
  %82 = zext i16 %81 to i32
  br label %83

83:                                               ; preds = %71, %69
  %84 = phi i32 [ %70, %69 ], [ %82, %71 ]
  store i32 %84, ptr %18, align 4, !tbaa !42
  br label %85

85:                                               ; preds = %83, %49
  %86 = load i32, ptr %18, align 4, !tbaa !42
  %87 = load i32, ptr %19, align 4, !tbaa !42
  %88 = icmp sgt i32 %86, %87
  br i1 %88, label %89, label %91

89:                                               ; preds = %85
  %90 = load i32, ptr %19, align 4, !tbaa !42
  br label %93

91:                                               ; preds = %85
  %92 = load i32, ptr %18, align 4, !tbaa !42
  br label %93

93:                                               ; preds = %91, %89
  %94 = phi i32 [ %90, %89 ], [ %92, %91 ]
  store i32 %94, ptr %18, align 4, !tbaa !42
  br label %95

95:                                               ; preds = %93
  %96 = load i32, ptr %17, align 4, !tbaa !42
  %97 = add nsw i32 %96, 1
  store i32 %97, ptr %17, align 4, !tbaa !42
  br label %46, !llvm.loop !80

98:                                               ; preds = %46
  %99 = load i32, ptr %18, align 4, !tbaa !42
  %100 = trunc i32 %99 to i16
  %101 = load ptr, ptr %15, align 8, !tbaa !71
  %102 = load i32, ptr %16, align 4, !tbaa !42
  %103 = sext i32 %102 to i64
  %104 = getelementptr inbounds i16, ptr %101, i64 %103
  store i16 %100, ptr %104, align 2, !tbaa !75
  call void @llvm.lifetime.end.p0(i64 4, ptr %19) #5
  call void @llvm.lifetime.end.p0(i64 4, ptr %18) #5
  br label %105

105:                                              ; preds = %98
  %106 = load i32, ptr %16, align 4, !tbaa !42
  %107 = add nsw i32 %106, 1
  store i32 %107, ptr %16, align 4, !tbaa !42
  br label %21, !llvm.loop !81

108:                                              ; preds = %21
  call void @llvm.lifetime.end.p0(i64 4, ptr %17) #5
  call void @llvm.lifetime.end.p0(i64 4, ptr %16) #5
  call void @llvm.lifetime.end.p0(i64 8, ptr %15) #5
  ret void
}