; Function Attrs: nofree norecurse nosync nounwind memory(read, argmem: readwrite, inaccessiblemem: none) uwtable
define internal void @dilation16(ptr noundef writeonly captures(none) %0, ptr noundef readonly captures(none) %1, i32 noundef %2, i32 noundef %3, ptr noundef readonly captures(none) %4, i32 noundef %5, i32 noundef %6) #5 {
  %8 = icmp sgt i32 %2, 0
  br i1 %8, label %.lr.ph.preheader, label %._crit_edge

.lr.ph.preheader:                                 ; preds = %7
  %wide.trip.count = zext nneg i32 %2 to i64
  br label %.lr.ph

.lr.ph:                                           ; preds = %.lr.ph.preheader, %27
  %indvars.iv37 = phi i64 [ 0, %.lr.ph.preheader ], [ %indvars.iv.next38, %27 ]
  %9 = shl nuw nsw i64 %indvars.iv37, 1
  %10 = getelementptr inbounds nuw i8, ptr %1, i64 %9
  %11 = load i16, ptr %10, align 2, !tbaa !61
  %12 = zext i16 %11 to i32
  %13 = add nsw i32 %3, %12
  %14 = tail call i32 @llvm.smin.i32(i32 %13, i32 %6)
  br label %15

15:                                               ; preds = %.lr.ph, %25
  %indvars.iv = phi i64 [ 0, %.lr.ph ], [ %indvars.iv.next, %25 ]
  %.03034 = phi i32 [ %12, %.lr.ph ], [ %26, %25 ]
  %16 = trunc nuw nsw i64 %indvars.iv to i32
  %17 = shl nuw nsw i32 1, %16
  %18 = and i32 %17, %5
  %.not = icmp eq i32 %18, 0
  br i1 %.not, label %25, label %19

19:                                               ; preds = %15
  %20 = getelementptr inbounds nuw ptr, ptr %4, i64 %indvars.iv
  %21 = load ptr, ptr %20, align 8, !tbaa !56
  %22 = getelementptr inbounds nuw i8, ptr %21, i64 %9
  %23 = load i16, ptr %22, align 2, !tbaa !61
  %24 = zext i16 %23 to i32
  %.030. = tail call i32 @llvm.smax.i32(i32 %.03034, i32 %24)
  br label %25

25:                                               ; preds = %19, %15
  %.1 = phi i32 [ %.030., %19 ], [ %.03034, %15 ]
  %26 = tail call i32 @llvm.smin.i32(i32 %.1, i32 %14)
  %indvars.iv.next = add nuw nsw i64 %indvars.iv, 1
  %exitcond.not = icmp eq i64 %indvars.iv.next, 8
  br i1 %exitcond.not, label %27, label %15, !llvm.loop !68

27:                                               ; preds = %25
  %28 = trunc i32 %26 to i16
  %29 = getelementptr inbounds nuw i16, ptr %0, i64 %indvars.iv37
  store i16 %28, ptr %29, align 2, !tbaa !63
  %indvars.iv.next38 = add nuw nsw i64 %indvars.iv37, 1
  %exitcond40.not = icmp eq i64 %indvars.iv.next38, %wide.trip.count
  br i1 %exitcond40.not, label %._crit_edge, label %.lr.ph, !llvm.loop !69

._crit_edge:                                      ; preds = %27, %7
  ret void
}